; Function Attrs: mustprogress nofree norecurse nosync nounwind willreturn memory(argmem: readwrite) uwtable
define void @_ZN4pkpy5TupleC2EONS_10pod_vectorIPNS_8PyObjectELi4EEE(ptr nocapture noundef nonnull writeonly align 8 dereferenceable(36) %0, ptr nocapture noundef nonnull align 8 dereferenceable(16) %1) unnamed_addr #5 align 2 personality ptr @__gxx_personality_v0 {
  %3 = load i32, ptr %1, align 8
  %4 = getelementptr inbounds i8, ptr %0, i64 32
  store i32 %3, ptr %4, align 8
  %5 = getelementptr inbounds i8, ptr %1, i64 8
  %6 = load ptr, ptr %5, align 8
  store ptr %6, ptr %0, align 8
  store ptr null, ptr %5, align 8
  ret void
}